target datalayout = "e-m:e-p270:32:32-p271:32:32-p272:64:64-i64:64-i128:128-f80:128-n8:16:32:64-S128"
target triple = "x86_64-unknown-linux-gnu"

module asm ".section \22.export_symbol\22,\22a\22 ; __export_symbol_check_signature: ; .asciz \22\22 ; .asciz \22\22 ; .balign 8 ; .quad check_signature ; .previous"

@__UNIQUE_ID___addressable_check_signature72 = internal global ptr @check_signature, section ".discard.addressable", align 8
@llvm.compiler.used = appending global [1 x ptr] [ptr @__UNIQUE_ID___addressable_check_signature72], section "llvm.metadata"

; Function Attrs: fn_ret_thunk_extern nounwind null_pointer_is_valid
define dso_local noundef i32 @check_signature(ptr noundef %0, ptr nocapture noundef readonly %1, i32 noundef %2) #0 align 16 {
  %4 = icmp eq i32 %2, 0
  br i1 %4, label %17, label %5

5:                                                ; preds = %12, %3
  %6 = phi i32 [ %13, %12 ], [ %2, %3 ]
  %7 = phi ptr [ %15, %12 ], [ %1, %3 ]
  %8 = phi ptr [ %14, %12 ], [ %0, %3 ]
  %9 = tail call i8 asm sideeffect "movb $1,$0", "=q,*m,~{memory},~{dirflag},~{fpsr},~{flags}"(ptr elementtype(i8) %8) #1, !srcloc !5
  %10 = load i8, ptr %7, align 1
  %11 = icmp eq i8 %9, %10
  br i1 %11, label %12, label %17

12:                                               ; preds = %5
  %13 = add i32 %6, -1
  %14 = getelementptr i8, ptr %8, i64 1
  %15 = getelementptr i8, ptr %7, i64 1
  %16 = icmp eq i32 %13, 0
  br i1 %16, label %17, label %5, !llvm.loop !6

17:                                               ; preds = %12, %5, %3
  %18 = phi i32 [ 1, %3 ], [ 0, %5 ], [ 1, %12 ]
  ret i32 %18
}


!llvm.module.flags = !{!0, !1, !2, !3, !4}

!0 = !{i32 1, !"wchar_size", i32 2}
!1 = !{i32 8, !"cf-protection-branch", i32 1}
!2 = !{i32 4, !"function_return_thunk_extern", i32 1}
!3 = !{i32 4, !"indirect_branch_cs_prefix", i32 1}
!4 = !{i32 4, !"SkipRaxSetup", i32 1}
!5 = !{i64 2148188102}
!6 = distinct !{!6, !7, !8}
!7 = !{!"llvm.loop.mustprogress"}
!8 = !{!"llvm.loop.unroll.disable"}
